target datalayout = "e-m:e-p270:32:32-p271:32:32-p272:64:64-i64:64-i128:128-f80:128-n8:16:32:64-S128"
target triple = "x86_64-unknown-linux-gnu"

%"class.std::__cxx11::basic_string" = type { %"struct.std::__cxx11::basic_string<char>::_Alloc_hider", i64, %union.anon.73 }
%"struct.std::__cxx11::basic_string<char>::_Alloc_hider" = type { ptr }
%union.anon.73 = type { i64, [8 x i8] }
%"class.std::unique_ptr.4" = type { %"struct.std::__uniq_ptr_data.5" }
%"struct.std::__uniq_ptr_data.5" = type { %"class.std::__uniq_ptr_impl.6" }
%"class.std::__uniq_ptr_impl.6" = type { %"class.std::tuple.7" }
%"class.std::tuple.7" = type { %"struct.std::_Tuple_impl.8" }
%"struct.std::_Tuple_impl.8" = type { %"struct.std::_Head_base.11" }
%"struct.std::_Head_base.11" = type { ptr }
%"class.std::exception" = type { ptr }
%"class.std::unique_ptr.60" = type { %"struct.std::__uniq_ptr_data.61" }
%"struct.std::__uniq_ptr_data.61" = type { %"class.std::__uniq_ptr_impl.62" }
%"class.std::__uniq_ptr_impl.62" = type { %"class.std::tuple.63" }
%"class.std::tuple.63" = type { %"struct.std::_Tuple_impl.64" }
%"struct.std::_Tuple_impl.64" = type { %"struct.std::_Head_base.67" }
%"struct.std::_Head_base.67" = type { ptr }
%"class.proxygen::HTTPException" = type { %"class.proxygen::Exception", i32, i32, %"class.folly::Optional.133", %"class.folly::Optional.135", i32, %"class.std::unique_ptr.4", %"class.std::unique_ptr.60" }
%"class.proxygen::Exception" = type { %"class.std::exception", %"class.std::__cxx11::basic_string", i32, i32 }
%"class.folly::Optional.133" = type { %"struct.folly::Optional<proxygen::HTTP3::ErrorCode>::StorageTriviallyDestructible" }
%"struct.folly::Optional<proxygen::HTTP3::ErrorCode>::StorageTriviallyDestructible" = type <{ %union.anon.134, i8, [7 x i8] }>
%union.anon.134 = type { i64 }
%"class.folly::Optional.135" = type { %"struct.folly::Optional<proxygen::ErrorCode>::StorageTriviallyDestructible" }
%"struct.folly::Optional<proxygen::ErrorCode>::StorageTriviallyDestructible" = type { %union.anon.136, i8 }
%union.anon.136 = type { i8 }

; Function Attrs: mustprogress nounwind uwtable
define linkonce_odr noundef zeroext i1 @_ZNK5folly8OptionalIN8proxygen9ErrorCodeEE9has_valueEv(ptr noundef nonnull align 1 dereferenceable(2) %this) #5 comdat align 2 {
entry:
  %this.addr = alloca ptr, align 8
  store ptr %this, ptr %this.addr, align 8
  %this1 = load ptr, ptr %this.addr, align 8
  %storage_ = getelementptr inbounds %"class.folly::Optional.135", ptr %this1, i32 0, i32 0
  %hasValue = getelementptr inbounds %"struct.folly::Optional<proxygen::ErrorCode>::StorageTriviallyDestructible", ptr %storage_, i32 0, i32 1
  %0 = load i8, ptr %hasValue, align 1
  %tobool = trunc i8 %0 to i1
  ret i1 %tobool
}

; Function Attrs: mustprogress nounwind uwtable
define linkonce_odr void @_ZN5folly8OptionalIN8proxygen9ErrorCodeEE9constructIJRKS2_EEEvDpOT_(ptr noundef nonnull align 1 dereferenceable(2) %this, ptr noundef nonnull align 1 dereferenceable(1) %args) #5 comdat align 2 {
entry:
  %this.addr = alloca ptr, align 8
  %args.addr = alloca ptr, align 8
  %ptr = alloca ptr, align 8
  store ptr %this, ptr %this.addr, align 8
  store ptr %args, ptr %args.addr, align 8
  %this1 = load ptr, ptr %this.addr, align 8
  %storage_ = getelementptr inbounds %"class.folly::Optional.135", ptr %this1, i32 0, i32 0
  %0 = getelementptr inbounds %"struct.folly::Optional<proxygen::ErrorCode>::StorageTriviallyDestructible", ptr %storage_, i32 0, i32 0
  store ptr %0, ptr %ptr, align 8
  %1 = load ptr, ptr %ptr, align 8
  %2 = load ptr, ptr %args.addr, align 8
  %3 = load i8, ptr %2, align 1
  store i8 %3, ptr %1, align 1
  %storage_2 = getelementptr inbounds %"class.folly::Optional.135", ptr %this1, i32 0, i32 0
  %hasValue = getelementptr inbounds %"struct.folly::Optional<proxygen::ErrorCode>::StorageTriviallyDestructible", ptr %storage_2, i32 0, i32 1
  store i8 1, ptr %hasValue, align 1
  ret void
}

; Function Attrs: mustprogress nounwind uwtable
define linkonce_odr noundef zeroext i1 @_ZNK5folly8OptionalIN8proxygen9ErrorCodeEE8hasValueEv(ptr noundef nonnull align 1 dereferenceable(2) %this) #5 comdat align 2 {
entry:
  %this.addr = alloca ptr, align 8
  store ptr %this, ptr %this.addr, align 8
  %this1 = load ptr, ptr %this.addr, align 8
  %call = call noundef zeroext i1 @_ZNK5folly8OptionalIN8proxygen9ErrorCodeEE9has_valueEv(ptr noundef nonnull align 1 dereferenceable(2) %this1) #3
  ret i1 %call
}

; Function Attrs: mustprogress uwtable
define linkonce_odr void @_ZN5folly8OptionalIN8proxygen9ErrorCodeEE6assignERKS2_(ptr noundef nonnull align 1 dereferenceable(2) %this, ptr noundef nonnull align 1 dereferenceable(1) %newValue) #4 comdat align 2 {
entry:
  %this.addr = alloca ptr, align 8
  %newValue.addr = alloca ptr, align 8
  store ptr %this, ptr %this.addr, align 8
  store ptr %newValue, ptr %newValue.addr, align 8
  %this1 = load ptr, ptr %this.addr, align 8
  %call = call noundef zeroext i1 @_ZNK5folly8OptionalIN8proxygen9ErrorCodeEE8hasValueEv(ptr noundef nonnull align 1 dereferenceable(2) %this1) #3
  br i1 %call, label %if.then, label %if.else

if.then:                                          ; preds = %entry
  %0 = load ptr, ptr %newValue.addr, align 8
  %1 = load i8, ptr %0, align 1
  %storage_ = getelementptr inbounds %"class.folly::Optional.135", ptr %this1, i32 0, i32 0
  %2 = getelementptr inbounds %"struct.folly::Optional<proxygen::ErrorCode>::StorageTriviallyDestructible", ptr %storage_, i32 0, i32 0
  store i8 %1, ptr %2, align 1
  br label %if.end

if.else:                                          ; preds = %entry
  %3 = load ptr, ptr %newValue.addr, align 8
  call void @_ZN5folly8OptionalIN8proxygen9ErrorCodeEE9constructIJRKS2_EEEvDpOT_(ptr noundef nonnull align 1 dereferenceable(2) %this1, ptr noundef nonnull align 1 dereferenceable(1) %3)
  br label %if.end

if.end:                                           ; preds = %if.else, %if.then
  ret void
}

; Function Attrs: mustprogress uwtable
define linkonce_odr noundef nonnull align 1 dereferenceable(2) ptr @_ZN5folly8OptionalIN8proxygen9ErrorCodeEEaSIRS2_EERS3_OT_(ptr noundef nonnull align 1 dereferenceable(2) %this, ptr noundef nonnull align 1 dereferenceable(1) %arg) #4 comdat align 2 {
entry:
  %this.addr = alloca ptr, align 8
  %arg.addr = alloca ptr, align 8
  store ptr %this, ptr %this.addr, align 8
  store ptr %arg, ptr %arg.addr, align 8
  %this1 = load ptr, ptr %this.addr, align 8
  %0 = load ptr, ptr %arg.addr, align 8
  call void @_ZN5folly8OptionalIN8proxygen9ErrorCodeEE6assignERKS2_(ptr noundef nonnull align 1 dereferenceable(2) %this1, ptr noundef nonnull align 1 dereferenceable(1) %0)
  ret ptr %this1
}

; Function Attrs: mustprogress uwtable
define linkonce_odr void @_ZN8proxygen13HTTPException18setCodecStatusCodeENS_9ErrorCodeE(ptr noundef nonnull align 8 dereferenceable(96) %this, i8 noundef zeroext %statusCode) #4 comdat align 2 {
entry:
  %this.addr = alloca ptr, align 8
  %statusCode.addr = alloca i8, align 1
  store ptr %this, ptr %this.addr, align 8
  store i8 %statusCode, ptr %statusCode.addr, align 1
  %this1 = load ptr, ptr %this.addr, align 8
  %codecStatusCode_ = getelementptr inbounds %"class.proxygen::HTTPException", ptr %this1, i32 0, i32 4
  %call = call noundef nonnull align 1 dereferenceable(2) ptr @_ZN5folly8OptionalIN8proxygen9ErrorCodeEEaSIRS2_EERS3_OT_(ptr noundef nonnull align 1 dereferenceable(2) %codecStatusCode_, ptr noundef nonnull align 1 dereferenceable(1) %statusCode.addr)
  ret void
}

; Function Attrs: mustprogress uwtable
define void @_ZN8proxygen15HTTPTransaction20abortAndDeliverErrorENS_9ErrorCodeERKNSt7__cxx1112basic_stringIcSt11char_traitsIcESaIcEEE(ptr noundef nonnull align 8 dereferenceable(912) %this, i8 noundef zeroext %codecError, ptr noundef nonnull align 8 dereferenceable(32) %msg) #4 align 2 personality ptr @__gxx_personality_v0 {
entry:
  %this.addr = alloca ptr, align 8
  %codecError.addr = alloca i8, align 1
  %msg.addr = alloca ptr, align 8
  %ex = alloca %"class.proxygen::HTTPException", align 8
  %exn.slot = alloca ptr, align 8
  %ehselector.slot = alloca i32, align 4
  store ptr %this, ptr %this.addr, align 8
  store i8 %codecError, ptr %codecError.addr, align 1
  store ptr %msg, ptr %msg.addr, align 8
  %this1 = load ptr, ptr %this.addr, align 8
  %0 = load ptr, ptr %msg.addr, align 8
  call void @_ZN8proxygen13HTTPExceptionC1ENS0_9DirectionERKNSt7__cxx1112basic_stringIcSt11char_traitsIcESaIcEEE(ptr noundef nonnull align 8 dereferenceable(96) %ex, i32 noundef 2, ptr noundef nonnull align 8 dereferenceable(32) %0)
  %1 = load i8, ptr %codecError.addr, align 1
  invoke void @_ZN8proxygen13HTTPException18setCodecStatusCodeENS_9ErrorCodeE(ptr noundef nonnull align 8 dereferenceable(96) %ex, i8 noundef zeroext %1)
          to label %invoke.cont unwind label %lpad

invoke.cont:                                      ; preds = %entry
  invoke void @_ZN8proxygen15HTTPTransaction7onErrorERKNS_13HTTPExceptionE(ptr noundef nonnull align 8 dereferenceable(912) %this1, ptr noundef nonnull align 8 dereferenceable(96) %ex)
          to label %invoke.cont2 unwind label %lpad

invoke.cont2:                                     ; preds = %invoke.cont
  call void @_ZN8proxygen13HTTPExceptionD2Ev(ptr noundef nonnull align 8 dereferenceable(96) %ex) #3
  ret void

lpad:                                             ; preds = %invoke.cont, %entry
  %2 = landingpad { ptr, i32 }
          cleanup
  %3 = extractvalue { ptr, i32 } %2, 0
  store ptr %3, ptr %exn.slot, align 8
  %4 = extractvalue { ptr, i32 } %2, 1
  store i32 %4, ptr %ehselector.slot, align 4
  call void @_ZN8proxygen13HTTPExceptionD2Ev(ptr noundef nonnull align 8 dereferenceable(96) %ex) #3
  br label %eh.resume

eh.resume:                                        ; preds = %lpad
  %exn = load ptr, ptr %exn.slot, align 8
  %sel = load i32, ptr %ehselector.slot, align 4
  %lpad.val = insertvalue { ptr, i32 } poison, ptr %exn, 0
  %lpad.val3 = insertvalue { ptr, i32 } %lpad.val, i32 %sel, 1
  resume { ptr, i32 } %lpad.val3
}