; Function Attrs: mustprogress uwtable
define void @_ZN8proxygen15HTTPTransaction20abortAndDeliverErrorENS_9ErrorCodeERKNSt7__cxx1112basic_stringIcSt11char_traitsIcESaIcEEE(ptr noundef nonnull align 8 dereferenceable(912) %this, i8 noundef zeroext %codecError, ptr noundef nonnull align 8 dereferenceable(32) %msg) local_unnamed_addr #3 align 2 personality ptr @__gxx_personality_v0 {
entry:
  %ex = alloca %"class.proxygen::HTTPException", align 8
  call void @_ZN8proxygen13HTTPExceptionC1ENS0_9DirectionERKNSt7__cxx1112basic_stringIcSt11char_traitsIcESaIcEEE(ptr noundef nonnull align 8 dereferenceable(96) %ex, i32 noundef 2, ptr noundef nonnull align 8 dereferenceable(32) %msg)
  %hasValue.i.i.i.i.i = getelementptr inbounds i8, ptr %ex, i64 73
  %0 = load i8, ptr %hasValue.i.i.i.i.i, align 1
  %1 = and i8 %0, 1
  %tobool.i.i.not.i.i.i = icmp eq i8 %1, 0
  br i1 %tobool.i.i.not.i.i.i, label %if.else.i.i.i, label %invoke.cont

if.else.i.i.i:                                    ; preds = %entry
  store i8 1, ptr %hasValue.i.i.i.i.i, align 1
  br label %invoke.cont

invoke.cont:                                      ; preds = %if.else.i.i.i, %entry
  %codecStatusCode_.i = getelementptr inbounds i8, ptr %ex, i64 72
  store i8 %codecError, ptr %codecStatusCode_.i, align 8
  invoke void @_ZN8proxygen15HTTPTransaction7onErrorERKNS_13HTTPExceptionE(ptr noundef nonnull align 8 dereferenceable(912) %this, ptr noundef nonnull align 8 dereferenceable(96) %ex)
          to label %invoke.cont2 unwind label %lpad

invoke.cont2:                                     ; preds = %invoke.cont
  store ptr getelementptr inbounds ({ [5 x ptr] }, ptr @_ZTVN8proxygen13HTTPExceptionE, i64 0, i32 0, i64 2), ptr %ex, align 8
  %partialMsg_.i = getelementptr inbounds i8, ptr %ex, i64 88
  %2 = load ptr, ptr %partialMsg_.i, align 8
  %cmp.not.i.i = icmp eq ptr %2, null
  br i1 %cmp.not.i.i, label %_ZNSt10unique_ptrIN8proxygen11HTTPMessageESt14default_deleteIS1_EED2Ev.exit.i, label %_ZNKSt14default_deleteIN8proxygen11HTTPMessageEEclEPS1_.exit.i.i

_ZNKSt14default_deleteIN8proxygen11HTTPMessageEEclEPS1_.exit.i.i: ; preds = %invoke.cont2
  call void @_ZN8proxygen11HTTPMessageD1Ev(ptr noundef nonnull align 8 dereferenceable(616) %2) #27
  call void @_ZdlPv(ptr noundef nonnull %2) #28
  br label %_ZNSt10unique_ptrIN8proxygen11HTTPMessageESt14default_deleteIS1_EED2Ev.exit.i

_ZNSt10unique_ptrIN8proxygen11HTTPMessageESt14default_deleteIS1_EED2Ev.exit.i: ; preds = %_ZNKSt14default_deleteIN8proxygen11HTTPMessageEEclEPS1_.exit.i.i, %invoke.cont2
  store ptr null, ptr %partialMsg_.i, align 8
  %currentIngressBuf_.i = getelementptr inbounds i8, ptr %ex, i64 80
  %3 = load ptr, ptr %currentIngressBuf_.i, align 8
  %cmp.not.i1.i = icmp eq ptr %3, null
  br i1 %cmp.not.i1.i, label %_ZN8proxygen13HTTPExceptionD2Ev.exit, label %_ZNKSt14default_deleteIN5folly5IOBufEEclEPS1_.exit.i.i

_ZNKSt14default_deleteIN5folly5IOBufEEclEPS1_.exit.i.i: ; preds = %_ZNSt10unique_ptrIN8proxygen11HTTPMessageESt14default_deleteIS1_EED2Ev.exit.i
  call void @_ZN5folly5IOBufD1Ev(ptr noundef nonnull align 8 dereferenceable(56) %3) #27
  call void @_ZN5folly5IOBufdlEPv(ptr noundef nonnull %3) #27
  br label %_ZN8proxygen13HTTPExceptionD2Ev.exit

_ZN8proxygen13HTTPExceptionD2Ev.exit:             ; preds = %_ZNSt10unique_ptrIN8proxygen11HTTPMessageESt14default_deleteIS1_EED2Ev.exit.i, %_ZNKSt14default_deleteIN5folly5IOBufEEclEPS1_.exit.i.i
  store ptr null, ptr %currentIngressBuf_.i, align 8
  store ptr getelementptr inbounds ({ [5 x ptr] }, ptr @_ZTVN8proxygen9ExceptionE, i64 0, i32 0, i64 2), ptr %ex, align 8
  %msg_.i.i = getelementptr inbounds i8, ptr %ex, i64 8
  call void @_ZNSt7__cxx1112basic_stringIcSt11char_traitsIcESaIcEED1Ev(ptr noundef nonnull align 8 dereferenceable(32) %msg_.i.i) #27
  call void @_ZNSt9exceptionD2Ev(ptr noundef nonnull align 8 dereferenceable(8) %ex) #27
  ret void

lpad:                                             ; preds = %invoke.cont
  %4 = landingpad { ptr, i32 }
          cleanup
  call void @_ZN8proxygen13HTTPExceptionD2Ev(ptr noundef nonnull align 8 dereferenceable(96) %ex) #27
  resume { ptr, i32 } %4
}